; Function Attrs: mustprogress nofree norecurse nosync nounwind willreturn memory(read, inaccessiblemem: none) uwtable
define hidden range(i32 0, 2) i32 @_PyIsPerfTrampolineActive() local_unnamed_addr #2 {
  %1 = tail call align 8 ptr @llvm.threadlocal.address.p0(ptr align 8 @_Py_tss_tstate)
  %2 = load ptr, ptr %1, align 8, !tbaa !188
  %3 = getelementptr inbounds nuw i8, ptr %2, i64 16
  %4 = load ptr, ptr %3, align 8, !tbaa !189
  %5 = getelementptr inbounds nuw i8, ptr %4, i64 8472
  %6 = load ptr, ptr %5, align 8, !tbaa !190
  %7 = icmp eq ptr %6, @py_trampoline_evaluator
  %8 = zext i1 %7 to i32
  ret i32 %8
}